; Function Attrs: nounwind uwtable
define range(i32 0, 2) i32 @ossl_DER_w_begin_sequence(ptr noundef %0, i32 noundef %1) local_unnamed_addr #0 {
  %3 = icmp slt i32 %1, 0
  br i1 %3, label %int_start_context.exit.thread4, label %4

4:                                                ; preds = %2
  %5 = icmp samesign ult i32 %1, 31
  br i1 %5, label %int_start_context.exit, label %int_start_context.exit.thread, !prof !3

int_start_context.exit:                           ; preds = %4
  %6 = tail call i32 @WPACKET_start_sub_packet(ptr noundef %0) #4
  %.not = icmp eq i32 %6, 0
  br i1 %.not, label %int_start_context.exit.thread, label %int_start_context.exit.thread4

int_start_context.exit.thread4:                   ; preds = %2, %int_start_context.exit
  %7 = tail call i32 @WPACKET_start_sub_packet(ptr noundef %0) #4
  %8 = icmp ne i32 %7, 0
  %9 = zext i1 %8 to i32
  br label %int_start_context.exit.thread

int_start_context.exit.thread:                    ; preds = %4, %int_start_context.exit.thread4, %int_start_context.exit
  %10 = phi i32 [ 0, %int_start_context.exit ], [ %9, %int_start_context.exit.thread4 ], [ 0, %4 ]
  ret i32 %10
}